target datalayout = "e-m:e-p270:32:32-p271:32:32-p272:64:64-i64:64-i128:128-f80:128-n8:16:32:64-S128"
target triple = "x86_64-pc-linux-gnu"

%"struct.std::atomic.98" = type { %"struct.std::__atomic_base.99" }
%"struct.std::__atomic_base.99" = type { i64 }
%"class.std::unique_ptr.81" = type { %"struct.std::__uniq_ptr_data.82" }
%"struct.std::__uniq_ptr_data.82" = type { %"class.std::__uniq_ptr_impl.83" }
%"class.std::__uniq_ptr_impl.83" = type { %"class.std::tuple.84" }
%"class.std::tuple.84" = type { %"struct.std::_Tuple_impl.85" }
%"struct.std::_Tuple_impl.85" = type { %"struct.std::_Tuple_impl.86", %"struct.std::_Head_base.88" }
%"struct.std::_Tuple_impl.86" = type { %"struct.std::_Head_base.87" }
%"struct.std::_Head_base.87" = type { %"class.grpc_core::Arena::PooledDeleter" }
%"class.grpc_core::Arena::PooledDeleter" = type { i8 }
%"struct.std::_Head_base.88" = type { ptr }
%"class.absl::lts_20240722::log_internal::NullStream" = type { i8 }
%"class.grpc_core::Arena" = type { %"class.grpc_core::RefCounted", i64, %"struct.std::atomic.98", %"struct.std::atomic.98", %"struct.std::atomic.100", %"struct.std::atomic.102", %"class.grpc_core::RefCountedPtr.104" }
%"class.grpc_core::RefCounted" = type { %"class.grpc_core::RefCount" }
%"class.grpc_core::RefCount" = type { %"struct.std::atomic.96" }
%"struct.std::atomic.96" = type { %"struct.std::__atomic_base.97" }
%"struct.std::__atomic_base.97" = type { i64 }
%"struct.std::atomic.100" = type { %"struct.std::__atomic_base.101" }
%"struct.std::__atomic_base.101" = type { ptr }
%"struct.std::atomic.102" = type { %"struct.std::__atomic_base.103" }
%"struct.std::__atomic_base.103" = type { ptr }
%"class.grpc_core::RefCountedPtr.104" = type { ptr }
%class.anon.299 = type { i8 }

@_ZN9grpc_core12arena_detail18ArenaContextTraitsINS_19CallTracerInterfaceEE3id_E = linkonce_odr global i16 0, comdat, align 2
@_ZN9grpc_core14promise_detail18ThreadLocalContextINS_5ArenaEE8current_E = linkonce_odr thread_local global ptr null, comdat, align 8

; Function Attrs: mustprogress nounwind uwtable
define linkonce_odr noundef nonnull align 8 dereferenceable(8) ptr @_ZNSt10_Head_baseILm0EP19grpc_metadata_batchLb0EE7_M_headERS2_(ptr noundef nonnull align 8 dereferenceable(8) %0) #6 comdat align 2 {
  %2 = alloca ptr, align 8
  store ptr %0, ptr %2, align 8, !tbaa !361
  %3 = load ptr, ptr %2, align 8, !tbaa !361
  %4 = getelementptr inbounds nuw %"struct.std::_Head_base.88", ptr %3, i32 0, i32 0
  ret ptr %4
}

; Function Attrs: mustprogress nounwind uwtable
define linkonce_odr noundef nonnull align 8 dereferenceable(8) ptr @_ZNSt11_Tuple_implILm0EJP19grpc_metadata_batchN9grpc_core5Arena13PooledDeleterEEE7_M_headERS5_(ptr noundef nonnull align 8 dereferenceable(16) %0) #6 comdat align 2 {
  %2 = alloca ptr, align 8
  store ptr %0, ptr %2, align 8, !tbaa !354
  %3 = load ptr, ptr %2, align 8, !tbaa !354
  %4 = getelementptr inbounds i8, ptr %3, i64 8
  %5 = call noundef nonnull align 8 dereferenceable(8) ptr @_ZNSt10_Head_baseILm0EP19grpc_metadata_batchLb0EE7_M_headERS2_(ptr noundef nonnull align 8 dereferenceable(8) %4) #3
  ret ptr %5
}

; Function Attrs: mustprogress nounwind uwtable
define linkonce_odr noundef nonnull align 8 dereferenceable(8) ptr @_ZNSt10_Head_baseILm0EP19grpc_metadata_batchLb0EE7_M_headERKS2_(ptr noundef nonnull align 8 dereferenceable(8) %0) #6 comdat align 2 {
  %2 = alloca ptr, align 8
  store ptr %0, ptr %2, align 8, !tbaa !361
  %3 = load ptr, ptr %2, align 8, !tbaa !361
  %4 = getelementptr inbounds nuw %"struct.std::_Head_base.88", ptr %3, i32 0, i32 0
  ret ptr %4
}

; Function Attrs: mustprogress nounwind uwtable
define linkonce_odr noundef nonnull align 8 dereferenceable(8) ptr @_ZSt12__get_helperILm0EP19grpc_metadata_batchJN9grpc_core5Arena13PooledDeleterEEERT0_RSt11_Tuple_implIXT_EJS5_DpT1_EE(ptr noundef nonnull align 8 dereferenceable(16) %0) #6 comdat {
  %2 = alloca ptr, align 8
  store ptr %0, ptr %2, align 8, !tbaa !354
  %3 = load ptr, ptr %2, align 8, !tbaa !354
  %4 = call noundef nonnull align 8 dereferenceable(8) ptr @_ZNSt11_Tuple_implILm0EJP19grpc_metadata_batchN9grpc_core5Arena13PooledDeleterEEE7_M_headERS5_(ptr noundef nonnull align 8 dereferenceable(16) %3) #3
  ret ptr %4
}

; Function Attrs: mustprogress nounwind uwtable
define linkonce_odr void @_ZNSt11_Tuple_implILm1EJN9grpc_core5Arena13PooledDeleterEEEC2EOS3_(ptr noundef nonnull align 1 dereferenceable(1) %0, ptr noundef nonnull align 1 dereferenceable(1) %1) unnamed_addr #6 comdat align 2 {
  %3 = alloca ptr, align 8
  %4 = alloca ptr, align 8
  store ptr %0, ptr %3, align 8, !tbaa !357
  store ptr %1, ptr %4, align 8, !tbaa !357
  %5 = load ptr, ptr %3, align 8
  %6 = load ptr, ptr %4, align 8, !tbaa !357
  call void @llvm.memcpy.p0.p0.i64(ptr align 1 %5, ptr align 1 %6, i64 1, i1 false), !tbaa.struct !359
  ret void
}

; Function Attrs: alwaysinline mustprogress nounwind uwtable
define linkonce_odr noundef zeroext i16 @_ZN9grpc_core12arena_detail18ArenaContextTraitsINS_19CallTracerInterfaceEE2idEv() #8 comdat align 2 {
  %1 = load i16, ptr @_ZN9grpc_core12arena_detail18ArenaContextTraitsINS_19CallTracerInterfaceEE3id_E, align 2, !tbaa !39
  ret i16 %1
}

; Function Attrs: alwaysinline mustprogress nounwind uwtable
define linkonce_odr noundef ptr @_ZN9grpc_core5Arena8contextsEv(ptr noundef nonnull align 8 dereferenceable(56) %0) #8 comdat align 2 {
  %2 = alloca ptr, align 8
  store ptr %0, ptr %2, align 8, !tbaa !191
  %3 = load ptr, ptr %2, align 8
  %4 = getelementptr inbounds %"class.grpc_core::Arena", ptr %3, i64 1
  ret ptr %4
}

; Function Attrs: mustprogress nounwind uwtable
define linkonce_odr noundef nonnull align 1 dereferenceable(1) ptr @_ZN4absl12lts_2024072212log_internal10NullStream14InternalStreamEv(ptr noundef nonnull align 1 dereferenceable(1) %0) #6 comdat align 2 {
  %2 = alloca ptr, align 8
  store ptr %0, ptr %2, align 8, !tbaa !317
  %3 = load ptr, ptr %2, align 8
  ret ptr %3
}

; Function Attrs: alwaysinline mustprogress nounwind uwtable
define linkonce_odr noundef ptr @_ZN9grpc_core14promise_detail18ThreadLocalContextINS_5ArenaEE3getEv() #8 comdat align 2 {
  %1 = call align 8 ptr @llvm.threadlocal.address.p0(ptr align 8 @_ZN9grpc_core14promise_detail18ThreadLocalContextINS_5ArenaEE8current_E)
  %2 = load ptr, ptr %1, align 8, !tbaa !191
  ret ptr %2
}

; Function Attrs: mustprogress nounwind uwtable
define linkonce_odr noundef nonnull align 8 dereferenceable(8) ptr @_ZNSt11_Tuple_implILm0EJP19grpc_metadata_batchN9grpc_core5Arena13PooledDeleterEEE7_M_headERKS5_(ptr noundef nonnull align 8 dereferenceable(16) %0) #6 comdat align 2 {
  %2 = alloca ptr, align 8
  store ptr %0, ptr %2, align 8, !tbaa !354
  %3 = load ptr, ptr %2, align 8, !tbaa !354
  %4 = getelementptr inbounds i8, ptr %3, i64 8
  %5 = call noundef nonnull align 8 dereferenceable(8) ptr @_ZNSt10_Head_baseILm0EP19grpc_metadata_batchLb0EE7_M_headERKS2_(ptr noundef nonnull align 8 dereferenceable(8) %4) #3
  ret ptr %5
}

; Function Attrs: mustprogress nounwind uwtable
define linkonce_odr noundef nonnull align 8 dereferenceable(8) ptr @_ZSt3getILm0EJP19grpc_metadata_batchN9grpc_core5Arena13PooledDeleterEEERNSt13tuple_elementIXT_ESt5tupleIJDpT0_EEE4typeERS9_(ptr noundef nonnull align 8 dereferenceable(16) %0) #6 comdat {
  %2 = alloca ptr, align 8
  store ptr %0, ptr %2, align 8, !tbaa !352
  %3 = load ptr, ptr %2, align 8, !tbaa !352
  %4 = call noundef nonnull align 8 dereferenceable(8) ptr @_ZSt12__get_helperILm0EP19grpc_metadata_batchJN9grpc_core5Arena13PooledDeleterEEERT0_RSt11_Tuple_implIXT_EJS5_DpT1_EE(ptr noundef nonnull align 8 dereferenceable(16) %3) #3
  ret ptr %4
}

; Function Attrs: mustprogress nounwind uwtable
define linkonce_odr void @_ZNSt11_Tuple_implILm0EJP19grpc_metadata_batchN9grpc_core5Arena13PooledDeleterEEEC2EOS5_(ptr noundef nonnull align 8 dereferenceable(16) %0, ptr noundef nonnull align 8 dereferenceable(16) %1) unnamed_addr #6 comdat align 2 {
  %3 = alloca ptr, align 8
  %4 = alloca ptr, align 8
  store ptr %0, ptr %3, align 8, !tbaa !354
  store ptr %1, ptr %4, align 8, !tbaa !354
  %5 = load ptr, ptr %3, align 8
  %6 = load ptr, ptr %4, align 8, !tbaa !354
  call void @_ZNSt11_Tuple_implILm1EJN9grpc_core5Arena13PooledDeleterEEEC2EOS3_(ptr noundef nonnull align 1 dereferenceable(1) %5, ptr noundef nonnull align 1 dereferenceable(1) %6) #3
  %7 = getelementptr inbounds i8, ptr %5, i64 8
  %8 = load ptr, ptr %4, align 8, !tbaa !354
  %9 = getelementptr inbounds i8, ptr %8, i64 8
  call void @llvm.memcpy.p0.p0.i64(ptr align 8 %7, ptr align 8 %9, i64 8, i1 false), !tbaa.struct !356
  ret void
}

; Function Attrs: alwaysinline mustprogress uwtable
define linkonce_odr noundef ptr @_ZN9grpc_core5Arena10GetContextINS_19CallTracerInterfaceEEEPT_v(ptr noundef nonnull align 8 dereferenceable(56) %0) #7 comdat align 2 {
  %2 = alloca ptr, align 8
  store ptr %0, ptr %2, align 8, !tbaa !191
  %3 = load ptr, ptr %2, align 8
  %4 = call noundef ptr @_ZN9grpc_core5Arena8contextsEv(ptr noundef nonnull align 8 dereferenceable(56) %3)
  %5 = call noundef zeroext i16 @_ZN9grpc_core12arena_detail18ArenaContextTraitsINS_19CallTracerInterfaceEE2idEv()
  %6 = zext i16 %5 to i64
  %7 = getelementptr inbounds nuw ptr, ptr %4, i64 %6
  %8 = load ptr, ptr %7, align 8, !tbaa !41
  ret ptr %8
}

; Function Attrs: alwaysinline mustprogress uwtable
define linkonce_odr noundef ptr @_ZN9grpc_core10GetContextINS_5ArenaEEEPT_v() #7 comdat {
  %1 = alloca ptr, align 8
  %2 = alloca %"class.absl::lts_20240722::log_internal::NullStream", align 1
  call void @llvm.lifetime.start.p0(i64 8, ptr %1) #3
  %3 = call noundef ptr @_ZN9grpc_core14promise_detail18ThreadLocalContextINS_5ArenaEE3getEv()
  store ptr %3, ptr %1, align 8, !tbaa !191
  br label %4

4:                                                ; preds = %5, %0
  br i1 false, label %5, label %7

5:                                                ; preds = %4
  call void @llvm.lifetime.start.p0(i64 1, ptr %2) #3
  %6 = call noundef nonnull align 1 dereferenceable(1) ptr @_ZN4absl12lts_2024072212log_internal10NullStream14InternalStreamEv(ptr noundef nonnull align 1 dereferenceable(1) %2)
  call void @llvm.lifetime.end.p0(i64 1, ptr %2) #3
  br label %4, !llvm.loop !319

7:                                                ; preds = %4
  %8 = load ptr, ptr %1, align 8, !tbaa !191
  call void @llvm.lifetime.end.p0(i64 8, ptr %1) #3
  ret ptr %8
}

; Function Attrs: mustprogress nounwind uwtable
define linkonce_odr noundef nonnull align 8 dereferenceable(8) ptr @_ZSt12__get_helperILm0EP19grpc_metadata_batchJN9grpc_core5Arena13PooledDeleterEEERKT0_RKSt11_Tuple_implIXT_EJS5_DpT1_EE(ptr noundef nonnull align 8 dereferenceable(16) %0) #6 comdat {
  %2 = alloca ptr, align 8
  store ptr %0, ptr %2, align 8, !tbaa !354
  %3 = load ptr, ptr %2, align 8, !tbaa !354
  %4 = call noundef nonnull align 8 dereferenceable(8) ptr @_ZNSt11_Tuple_implILm0EJP19grpc_metadata_batchN9grpc_core5Arena13PooledDeleterEEE7_M_headERKS5_(ptr noundef nonnull align 8 dereferenceable(16) %3) #3
  ret ptr %4
}

; Function Attrs: mustprogress nounwind uwtable
define linkonce_odr noundef nonnull align 8 dereferenceable(8) ptr @_ZNSt15__uniq_ptr_implI19grpc_metadata_batchN9grpc_core5Arena13PooledDeleterEE6_M_ptrEv(ptr noundef nonnull align 8 dereferenceable(16) %0) #6 comdat align 2 {
  %2 = alloca ptr, align 8
  store ptr %0, ptr %2, align 8, !tbaa !350
  %3 = load ptr, ptr %2, align 8
  %4 = getelementptr inbounds nuw %"class.std::__uniq_ptr_impl.83", ptr %3, i32 0, i32 0
  %5 = call noundef nonnull align 8 dereferenceable(8) ptr @_ZSt3getILm0EJP19grpc_metadata_batchN9grpc_core5Arena13PooledDeleterEEERNSt13tuple_elementIXT_ESt5tupleIJDpT0_EEE4typeERS9_(ptr noundef nonnull align 8 dereferenceable(16) %4) #3
  ret ptr %5
}

; Function Attrs: mustprogress nounwind uwtable
define linkonce_odr void @_ZNSt5tupleIJP19grpc_metadata_batchN9grpc_core5Arena13PooledDeleterEEEC2EOS5_(ptr noundef nonnull align 8 dereferenceable(16) %0, ptr noundef nonnull align 8 dereferenceable(16) %1) unnamed_addr #6 comdat align 2 {
  %3 = alloca ptr, align 8
  %4 = alloca ptr, align 8
  store ptr %0, ptr %3, align 8, !tbaa !352
  store ptr %1, ptr %4, align 8, !tbaa !352
  %5 = load ptr, ptr %3, align 8
  %6 = load ptr, ptr %4, align 8, !tbaa !352
  call void @_ZNSt11_Tuple_implILm0EJP19grpc_metadata_batchN9grpc_core5Arena13PooledDeleterEEEC2EOS5_(ptr noundef nonnull align 8 dereferenceable(16) %5, ptr noundef nonnull align 8 dereferenceable(16) %6) #3
  ret void
}

; Function Attrs: alwaysinline mustprogress nounwind uwtable
define linkonce_odr noundef ptr @_ZN9grpc_core8DownCastIPNS_16ServerCallTracerENS_19CallTracerInterfaceEEET_PT0_(ptr noundef %0) #8 comdat {
  %2 = alloca ptr, align 8
  store ptr %0, ptr %2, align 8, !tbaa !607
  %3 = load ptr, ptr %2, align 8, !tbaa !607
  ret ptr %3
}

; Function Attrs: alwaysinline mustprogress uwtable
define linkonce_odr noundef ptr @_ZN9grpc_core14promise_detail7ContextINS_19CallTracerInterfaceEvE3getEv() #7 comdat align 2 {
  %1 = call noundef ptr @_ZN9grpc_core10GetContextINS_5ArenaEEEPT_v()
  %2 = call noundef ptr @_ZN9grpc_core5Arena10GetContextINS_19CallTracerInterfaceEEEPT_v(ptr noundef nonnull align 8 dereferenceable(56) %1)
  ret ptr %2
}

; Function Attrs: mustprogress nounwind uwtable
define linkonce_odr noundef nonnull align 8 dereferenceable(8) ptr @_ZSt3getILm0EJP19grpc_metadata_batchN9grpc_core5Arena13PooledDeleterEEERKNSt13tuple_elementIXT_ESt5tupleIJDpT0_EEE4typeERKS9_(ptr noundef nonnull align 8 dereferenceable(16) %0) #6 comdat {
  %2 = alloca ptr, align 8
  store ptr %0, ptr %2, align 8, !tbaa !352
  %3 = load ptr, ptr %2, align 8, !tbaa !352
  %4 = call noundef nonnull align 8 dereferenceable(8) ptr @_ZSt12__get_helperILm0EP19grpc_metadata_batchJN9grpc_core5Arena13PooledDeleterEEERKT0_RKSt11_Tuple_implIXT_EJS5_DpT1_EE(ptr noundef nonnull align 8 dereferenceable(16) %3) #3
  ret ptr %4
}

; Function Attrs: mustprogress nounwind uwtable
define linkonce_odr void @_ZNSt15__uniq_ptr_implI19grpc_metadata_batchN9grpc_core5Arena13PooledDeleterEEC2EOS4_(ptr noundef nonnull align 8 dereferenceable(16) %0, ptr noundef nonnull align 8 dereferenceable(16) %1) unnamed_addr #6 comdat align 2 {
  %3 = alloca ptr, align 8
  %4 = alloca ptr, align 8
  store ptr %0, ptr %3, align 8, !tbaa !350
  store ptr %1, ptr %4, align 8, !tbaa !350
  %5 = load ptr, ptr %3, align 8
  %6 = getelementptr inbounds nuw %"class.std::__uniq_ptr_impl.83", ptr %5, i32 0, i32 0
  %7 = load ptr, ptr %4, align 8, !tbaa !350
  %8 = getelementptr inbounds nuw %"class.std::__uniq_ptr_impl.83", ptr %7, i32 0, i32 0
  call void @_ZNSt5tupleIJP19grpc_metadata_batchN9grpc_core5Arena13PooledDeleterEEEC2EOS5_(ptr noundef nonnull align 8 dereferenceable(16) %6, ptr noundef nonnull align 8 dereferenceable(16) %8) #3
  %9 = load ptr, ptr %4, align 8, !tbaa !350
  %10 = call noundef nonnull align 8 dereferenceable(8) ptr @_ZNSt15__uniq_ptr_implI19grpc_metadata_batchN9grpc_core5Arena13PooledDeleterEE6_M_ptrEv(ptr noundef nonnull align 8 dereferenceable(16) %9) #3
  store ptr null, ptr %10, align 8, !tbaa !266
  ret void
}

; Function Attrs: alwaysinline mustprogress uwtable
define linkonce_odr noundef ptr @_ZN9grpc_core14promise_detail7ContextINS_16ServerCallTracerEvE3getEv() #7 comdat align 2 {
  %1 = call noundef ptr @_ZN9grpc_core14promise_detail7ContextINS_19CallTracerInterfaceEvE3getEv()
  %2 = call noundef ptr @_ZN9grpc_core8DownCastIPNS_16ServerCallTracerENS_19CallTracerInterfaceEEET_PT0_(ptr noundef %1)
  ret ptr %2
}

; Function Attrs: mustprogress nounwind uwtable
define linkonce_odr noundef ptr @_ZNKSt15__uniq_ptr_implI19grpc_metadata_batchN9grpc_core5Arena13PooledDeleterEE6_M_ptrEv(ptr noundef nonnull align 8 dereferenceable(16) %0) #6 comdat align 2 {
  %2 = alloca ptr, align 8
  store ptr %0, ptr %2, align 8, !tbaa !350
  %3 = load ptr, ptr %2, align 8
  %4 = getelementptr inbounds nuw %"class.std::__uniq_ptr_impl.83", ptr %3, i32 0, i32 0
  %5 = call noundef nonnull align 8 dereferenceable(8) ptr @_ZSt3getILm0EJP19grpc_metadata_batchN9grpc_core5Arena13PooledDeleterEEERKNSt13tuple_elementIXT_ESt5tupleIJDpT0_EEE4typeERKS9_(ptr noundef nonnull align 8 dereferenceable(16) %4) #3
  %6 = load ptr, ptr %5, align 8, !tbaa !266
  ret ptr %6
}

; Function Attrs: mustprogress nounwind uwtable
define linkonce_odr void @_ZNSt15__uniq_ptr_dataI19grpc_metadata_batchN9grpc_core5Arena13PooledDeleterELb1ELb1EEC2EOS4_(ptr noundef nonnull align 8 dereferenceable(16) %0, ptr noundef nonnull align 8 dereferenceable(16) %1) unnamed_addr #6 comdat align 2 {
  %3 = alloca ptr, align 8
  %4 = alloca ptr, align 8
  store ptr %0, ptr %3, align 8, !tbaa !348
  store ptr %1, ptr %4, align 8, !tbaa !348
  %5 = load ptr, ptr %3, align 8
  %6 = load ptr, ptr %4, align 8, !tbaa !348
  call void @_ZNSt15__uniq_ptr_implI19grpc_metadata_batchN9grpc_core5Arena13PooledDeleterEEC2EOS4_(ptr noundef nonnull align 8 dereferenceable(16) %5, ptr noundef nonnull align 8 dereferenceable(16) %6) #3
  ret void
}

; Function Attrs: alwaysinline mustprogress uwtable
define linkonce_odr noundef ptr @_ZN9grpc_core15MaybeGetContextINS_16ServerCallTracerEEEPT_v() #7 comdat {
  %1 = call noundef ptr @_ZN9grpc_core14promise_detail7ContextINS_16ServerCallTracerEvE3getEv()
  ret ptr %1
}

; Function Attrs: mustprogress nounwind uwtable
define linkonce_odr noundef ptr @_ZNKSt10unique_ptrI19grpc_metadata_batchN9grpc_core5Arena13PooledDeleterEE3getEv(ptr noundef nonnull align 8 dereferenceable(16) %0) #6 comdat align 2 {
  %2 = alloca ptr, align 8
  store ptr %0, ptr %2, align 8, !tbaa !342
  %3 = load ptr, ptr %2, align 8
  %4 = getelementptr inbounds nuw %"class.std::unique_ptr.81", ptr %3, i32 0, i32 0
  %5 = call noundef ptr @_ZNKSt15__uniq_ptr_implI19grpc_metadata_batchN9grpc_core5Arena13PooledDeleterEE6_M_ptrEv(ptr noundef nonnull align 8 dereferenceable(16) %4) #3
  ret ptr %5
}

; Function Attrs: mustprogress nounwind uwtable
define linkonce_odr void @_ZNSt10unique_ptrI19grpc_metadata_batchN9grpc_core5Arena13PooledDeleterEEC2EOS4_(ptr noundef nonnull align 8 dereferenceable(16) %0, ptr noundef nonnull align 8 dereferenceable(16) %1) unnamed_addr #6 comdat align 2 {
  %3 = alloca ptr, align 8
  %4 = alloca ptr, align 8
  store ptr %0, ptr %3, align 8, !tbaa !342
  store ptr %1, ptr %4, align 8, !tbaa !342
  %5 = load ptr, ptr %3, align 8
  %6 = getelementptr inbounds nuw %"class.std::unique_ptr.81", ptr %5, i32 0, i32 0
  %7 = load ptr, ptr %4, align 8, !tbaa !342
  %8 = getelementptr inbounds nuw %"class.std::unique_ptr.81", ptr %7, i32 0, i32 0
  call void @_ZNSt15__uniq_ptr_dataI19grpc_metadata_batchN9grpc_core5Arena13PooledDeleterELb1ELb1EEC2EOS4_(ptr noundef nonnull align 8 dereferenceable(16) %6, ptr noundef nonnull align 8 dereferenceable(16) %8) #3
  ret void
}

; Function Attrs: mustprogress uwtable
define internal void @_ZN9grpc_core12_GLOBAL__N_122ServerCallTracerFilter4Call24OnServerTrailingMetadataER19grpc_metadata_batch(ptr noundef nonnull align 1 dereferenceable(1) %0, ptr noundef nonnull align 8 dereferenceable(600) %1) #4 align 2 {
  %3 = alloca ptr, align 8
  %4 = alloca ptr, align 8
  %5 = alloca ptr, align 8
  %6 = alloca i32, align 4
  store ptr %0, ptr %3, align 8, !tbaa !264
  store ptr %1, ptr %4, align 8, !tbaa !266
  br label %7

7:                                                ; preds = %2
  br label %8

8:                                                ; preds = %7
  call void @llvm.lifetime.start.p0(i64 8, ptr %5) #3
  %9 = call noundef ptr @_ZN9grpc_core15MaybeGetContextINS_16ServerCallTracerEEEPT_v()
  store ptr %9, ptr %5, align 8, !tbaa !267
  %10 = load ptr, ptr %5, align 8, !tbaa !267
  %11 = icmp eq ptr %10, null
  br i1 %11, label %12, label %13

12:                                               ; preds = %8
  store i32 1, ptr %6, align 4
  br label %19

13:                                               ; preds = %8
  %14 = load ptr, ptr %5, align 8, !tbaa !267
  %15 = load ptr, ptr %4, align 8, !tbaa !266
  %16 = load ptr, ptr %14, align 8, !tbaa !46
  %17 = getelementptr inbounds ptr, ptr %16, i64 9
  %18 = load ptr, ptr %17, align 8
  call void %18(ptr noundef nonnull align 8 dereferenceable(8) %14, ptr noundef %15)
  store i32 0, ptr %6, align 4
  br label %19

19:                                               ; preds = %13, %12
  call void @llvm.lifetime.end.p0(i64 8, ptr %5) #3
  %20 = load i32, ptr %6, align 4
  switch i32 %20, label %22 [
    i32 0, label %21
    i32 1, label %21
  ]

21:                                               ; preds = %19, %19
  ret void

22:                                               ; preds = %19
  unreachable
}

; Function Attrs: mustprogress nounwind uwtable
define linkonce_odr noundef nonnull align 8 dereferenceable(600) ptr @_ZNKSt10unique_ptrI19grpc_metadata_batchN9grpc_core5Arena13PooledDeleterEEdeEv(ptr noundef nonnull align 8 dereferenceable(16) %0) #6 comdat align 2 {
  %2 = alloca ptr, align 8
  store ptr %0, ptr %2, align 8, !tbaa !342
  %3 = load ptr, ptr %2, align 8
  br label %4

4:                                                ; preds = %1
  br label %5

5:                                                ; preds = %4
  br label %6

6:                                                ; preds = %5
  %7 = call noundef ptr @_ZNKSt10unique_ptrI19grpc_metadata_batchN9grpc_core5Arena13PooledDeleterEE3getEv(ptr noundef nonnull align 8 dereferenceable(16) %3) #3
  ret ptr %7
}

; Function Attrs: inlinehint mustprogress uwtable
define internal void @_ZZN9grpc_core14filters_detail25AddServerTrailingMetadataINS_12_GLOBAL__N_122ServerCallTracerFilterEEEvPT_mMNS4_4CallEFvR19grpc_metadata_batchERSt6vectorINS0_30ServerTrailingMetadataOperatorESaISC_EEENKUlPvSG_St10unique_ptrIS7_NS_5Arena13PooledDeleterEEE_clESG_SG_SK_(ptr dead_on_unwind noalias writable sret(%"class.std::unique_ptr.81") align 8 %0, ptr noundef nonnull align 1 dereferenceable(1) %1, ptr noundef %2, ptr noundef %3, ptr noundef %4) #17 align 2 {
  %6 = alloca ptr, align 8
  %7 = alloca ptr, align 8
  %8 = alloca ptr, align 8
  %9 = alloca ptr, align 8
  %10 = alloca ptr, align 8
  store ptr %0, ptr %6, align 8
  store ptr %1, ptr %7, align 8, !tbaa !41
  store ptr %2, ptr %8, align 8, !tbaa !41
  store ptr %3, ptr %9, align 8, !tbaa !41
  store ptr %4, ptr %10, align 8, !tbaa !342
  %11 = load ptr, ptr %8, align 8, !tbaa !41
  %12 = call noundef nonnull align 8 dereferenceable(600) ptr @_ZNKSt10unique_ptrI19grpc_metadata_batchN9grpc_core5Arena13PooledDeleterEEdeEv(ptr noundef nonnull align 8 dereferenceable(16) %4) #3
  call void @_ZN9grpc_core12_GLOBAL__N_122ServerCallTracerFilter4Call24OnServerTrailingMetadataER19grpc_metadata_batch(ptr noundef nonnull align 1 dereferenceable(1) %11, ptr noundef nonnull align 8 dereferenceable(600) %12)
  call void @_ZNSt10unique_ptrI19grpc_metadata_batchN9grpc_core5Arena13PooledDeleterEEC2EOS4_(ptr noundef nonnull align 8 dereferenceable(16) %0, ptr noundef nonnull align 8 dereferenceable(16) %4) #3
  ret void
}

; Function Attrs: inlinehint mustprogress uwtable
define internal void @_ZZN9grpc_core14filters_detail25AddServerTrailingMetadataINS_12_GLOBAL__N_122ServerCallTracerFilterEEEvPT_mMNS4_4CallEFvR19grpc_metadata_batchERSt6vectorINS0_30ServerTrailingMetadataOperatorESaISC_EEENUlPvSG_St10unique_ptrIS7_NS_5Arena13PooledDeleterEEE_8__invokeESG_SG_SK_(ptr dead_on_unwind noalias writable sret(%"class.std::unique_ptr.81") align 8 %0, ptr noundef %1, ptr noundef %2, ptr noundef %3) #17 align 2 {
  %5 = alloca ptr, align 8
  %6 = alloca ptr, align 8
  %7 = alloca ptr, align 8
  %8 = alloca ptr, align 8
  %9 = alloca %class.anon.299, align 1
  store ptr %0, ptr %5, align 8
  store ptr %1, ptr %6, align 8, !tbaa !41
  store ptr %2, ptr %7, align 8, !tbaa !41
  store ptr %3, ptr %8, align 8, !tbaa !342
  %10 = load ptr, ptr %6, align 8, !tbaa !41
  %11 = load ptr, ptr %7, align 8, !tbaa !41
  call void @_ZZN9grpc_core14filters_detail25AddServerTrailingMetadataINS_12_GLOBAL__N_122ServerCallTracerFilterEEEvPT_mMNS4_4CallEFvR19grpc_metadata_batchERSt6vectorINS0_30ServerTrailingMetadataOperatorESaISC_EEENKUlPvSG_St10unique_ptrIS7_NS_5Arena13PooledDeleterEEE_clESG_SG_SK_(ptr dead_on_unwind writable sret(%"class.std::unique_ptr.81") align 8 %0, ptr noundef nonnull align 1 dereferenceable(1) %9, ptr noundef %10, ptr noundef %11, ptr noundef %3)
  ret void
}