; Function Attrs: inlinehint mustprogress uwtable
define internal void @_ZZN9grpc_core14filters_detail25AddServerTrailingMetadataINS_12_GLOBAL__N_122ServerCallTracerFilterEEEvPT_mMNS4_4CallEFvR19grpc_metadata_batchERSt6vectorINS0_30ServerTrailingMetadataOperatorESaISC_EEENUlPvSG_St10unique_ptrIS7_NS_5Arena13PooledDeleterEEE_8__invokeESG_SG_SK_(ptr dead_on_unwind noalias writable writeonly sret(%"class.std::unique_ptr.81") align 8 captures(none) initializes((0, 1), (8, 16)) %0, ptr readnone captures(none) %1, ptr readnone captures(none) %2, ptr noundef captures(none) %3) #26 align 2 {
  tail call void @llvm.experimental.noalias.scope.decl(metadata !351)
  %5 = getelementptr inbounds nuw i8, ptr %3, i64 8
  %6 = tail call align 8 ptr @llvm.threadlocal.address.p0(ptr align 8 @_ZN9grpc_core14promise_detail18ThreadLocalContextINS_5ArenaEE8current_E)
  %7 = load ptr, ptr %6, align 8, !tbaa !60, !noalias !351
  %8 = getelementptr inbounds nuw i8, ptr %7, i64 56
  %9 = load i16, ptr @_ZN9grpc_core12arena_detail18ArenaContextTraitsINS_19CallTracerInterfaceEE3id_E, align 2, !tbaa !21, !noalias !351
  %10 = zext i16 %9 to i64
  %11 = getelementptr inbounds nuw ptr, ptr %8, i64 %10
  %12 = load ptr, ptr %11, align 8, !tbaa !28, !noalias !351
  %13 = icmp eq ptr %12, null
  br i1 %13, label %_ZZN9grpc_core14filters_detail25AddServerTrailingMetadataINS_12_GLOBAL__N_122ServerCallTracerFilterEEEvPT_mMNS4_4CallEFvR19grpc_metadata_batchERSt6vectorINS0_30ServerTrailingMetadataOperatorESaISC_EEENKUlPvSG_St10unique_ptrIS7_NS_5Arena13PooledDeleterEEE_clESG_SG_SK_.exit, label %14

14:                                               ; preds = %4
  %15 = load ptr, ptr %5, align 8, !tbaa !142, !noalias !351
  %16 = load ptr, ptr %12, align 8, !tbaa !19, !noalias !351
  %17 = getelementptr inbounds nuw i8, ptr %16, i64 72
  %18 = load ptr, ptr %17, align 8, !noalias !351
  tail call void %18(ptr noundef nonnull align 8 dereferenceable(8) %12, ptr noundef nonnull align 8 dereferenceable(600) %15), !noalias !351
  br label %_ZZN9grpc_core14filters_detail25AddServerTrailingMetadataINS_12_GLOBAL__N_122ServerCallTracerFilterEEEvPT_mMNS4_4CallEFvR19grpc_metadata_batchERSt6vectorINS0_30ServerTrailingMetadataOperatorESaISC_EEENKUlPvSG_St10unique_ptrIS7_NS_5Arena13PooledDeleterEEE_clESG_SG_SK_.exit

_ZZN9grpc_core14filters_detail25AddServerTrailingMetadataINS_12_GLOBAL__N_122ServerCallTracerFilterEEEvPT_mMNS4_4CallEFvR19grpc_metadata_batchERSt6vectorINS0_30ServerTrailingMetadataOperatorESaISC_EEENKUlPvSG_St10unique_ptrIS7_NS_5Arena13PooledDeleterEEE_clESG_SG_SK_.exit: ; preds = %4, %14
  %19 = load i8, ptr %3, align 1, !tbaa !141, !noalias !351
  store i8 %19, ptr %0, align 8, !tbaa !141, !alias.scope !351
  %20 = getelementptr inbounds nuw i8, ptr %0, i64 8
  %21 = load i64, ptr %5, align 8, !tbaa !142, !noalias !351
  store i64 %21, ptr %20, align 8, !tbaa !142, !alias.scope !351
  store ptr null, ptr %5, align 8, !tbaa !142, !noalias !351
  ret void
}